target datalayout = "e-m:e-p270:32:32-p271:32:32-p272:64:64-i64:64-i128:128-f80:128-n8:16:32:64-S128"
target triple = "x86_64-pc-linux-gnu"

%struct.Vec_Ptr_t_ = type { i32, i32, ptr }
%struct.Vec_Int_t_ = type { i32, i32, ptr }

@.str.4 = private unnamed_addr constant [66 x i8] c"Overlap size (%d) is more or equal than the partition size (%d).\0A\00", align 1
@.str.5 = private unnamed_addr constant [57 x i8] c"Adjusting it to be equal to half of the partition size.\0A\00", align 1

; Function Attrs: inlinehint nounwind uwtable
define internal void @Vec_PtrGrow(ptr noundef %0, i32 noundef %1) #5 {
  %3 = alloca ptr, align 8
  %4 = alloca i32, align 4
  store ptr %0, ptr %3, align 8, !tbaa !27
  store i32 %1, ptr %4, align 4, !tbaa !8
  %5 = load ptr, ptr %3, align 8, !tbaa !27
  %6 = getelementptr inbounds nuw %struct.Vec_Ptr_t_, ptr %5, i32 0, i32 0
  %7 = load i32, ptr %6, align 8, !tbaa !30
  %8 = load i32, ptr %4, align 4, !tbaa !8
  %9 = icmp sge i32 %7, %8
  br i1 %9, label %10, label %11

10:                                               ; preds = %2
  br label %36

11:                                               ; preds = %2
  %12 = load ptr, ptr %3, align 8, !tbaa !27
  %13 = getelementptr inbounds nuw %struct.Vec_Ptr_t_, ptr %12, i32 0, i32 2
  %14 = load ptr, ptr %13, align 8, !tbaa !31
  %15 = icmp ne ptr %14, null
  br i1 %15, label %16, label %24

16:                                               ; preds = %11
  %17 = load ptr, ptr %3, align 8, !tbaa !27
  %18 = getelementptr inbounds nuw %struct.Vec_Ptr_t_, ptr %17, i32 0, i32 2
  %19 = load ptr, ptr %18, align 8, !tbaa !31
  %20 = load i32, ptr %4, align 4, !tbaa !8
  %21 = sext i32 %20 to i64
  %22 = mul i64 8, %21
  %23 = call ptr @realloc(ptr noundef %19, i64 noundef %22) #11
  br label %29

24:                                               ; preds = %11
  %25 = load i32, ptr %4, align 4, !tbaa !8
  %26 = sext i32 %25 to i64
  %27 = mul i64 8, %26
  %28 = call noalias ptr @malloc(i64 noundef %27) #10
  br label %29

29:                                               ; preds = %24, %16
  %30 = phi ptr [ %23, %16 ], [ %28, %24 ]
  %31 = load ptr, ptr %3, align 8, !tbaa !27
  %32 = getelementptr inbounds nuw %struct.Vec_Ptr_t_, ptr %31, i32 0, i32 2
  store ptr %30, ptr %32, align 8, !tbaa !31
  %33 = load i32, ptr %4, align 4, !tbaa !8
  %34 = load ptr, ptr %3, align 8, !tbaa !27
  %35 = getelementptr inbounds nuw %struct.Vec_Ptr_t_, ptr %34, i32 0, i32 0
  store i32 %33, ptr %35, align 8, !tbaa !30
  br label %36

36:                                               ; preds = %29, %10
  ret void
}

; Function Attrs: inlinehint nounwind uwtable
define internal void @Vec_IntGrow(ptr noundef %0, i32 noundef %1) #5 {
  %3 = alloca ptr, align 8
  %4 = alloca i32, align 4
  store ptr %0, ptr %3, align 8, !tbaa !32
  store i32 %1, ptr %4, align 4, !tbaa !8
  %5 = load ptr, ptr %3, align 8, !tbaa !32
  %6 = getelementptr inbounds nuw %struct.Vec_Int_t_, ptr %5, i32 0, i32 0
  %7 = load i32, ptr %6, align 8, !tbaa !36
  %8 = load i32, ptr %4, align 4, !tbaa !8
  %9 = icmp sge i32 %7, %8
  br i1 %9, label %10, label %11

10:                                               ; preds = %2
  br label %36

11:                                               ; preds = %2
  %12 = load ptr, ptr %3, align 8, !tbaa !32
  %13 = getelementptr inbounds nuw %struct.Vec_Int_t_, ptr %12, i32 0, i32 2
  %14 = load ptr, ptr %13, align 8, !tbaa !37
  %15 = icmp ne ptr %14, null
  br i1 %15, label %16, label %24

16:                                               ; preds = %11
  %17 = load ptr, ptr %3, align 8, !tbaa !32
  %18 = getelementptr inbounds nuw %struct.Vec_Int_t_, ptr %17, i32 0, i32 2
  %19 = load ptr, ptr %18, align 8, !tbaa !37
  %20 = load i32, ptr %4, align 4, !tbaa !8
  %21 = sext i32 %20 to i64
  %22 = mul i64 4, %21
  %23 = call ptr @realloc(ptr noundef %19, i64 noundef %22) #11
  br label %29

24:                                               ; preds = %11
  %25 = load i32, ptr %4, align 4, !tbaa !8
  %26 = sext i32 %25 to i64
  %27 = mul i64 4, %26
  %28 = call noalias ptr @malloc(i64 noundef %27) #10
  br label %29

29:                                               ; preds = %24, %16
  %30 = phi ptr [ %23, %16 ], [ %28, %24 ]
  %31 = load ptr, ptr %3, align 8, !tbaa !32
  %32 = getelementptr inbounds nuw %struct.Vec_Int_t_, ptr %31, i32 0, i32 2
  store ptr %30, ptr %32, align 8, !tbaa !37
  %33 = load i32, ptr %4, align 4, !tbaa !8
  %34 = load ptr, ptr %3, align 8, !tbaa !32
  %35 = getelementptr inbounds nuw %struct.Vec_Int_t_, ptr %34, i32 0, i32 0
  store i32 %33, ptr %35, align 8, !tbaa !36
  br label %36

36:                                               ; preds = %29, %10
  ret void
}

; Function Attrs: inlinehint nounwind uwtable
define internal void @Vec_PtrPush(ptr noundef %0, ptr noundef %1) #5 {
  %3 = alloca ptr, align 8
  %4 = alloca ptr, align 8
  store ptr %0, ptr %3, align 8, !tbaa !27
  store ptr %1, ptr %4, align 8, !tbaa !59
  %5 = load ptr, ptr %3, align 8, !tbaa !27
  %6 = getelementptr inbounds nuw %struct.Vec_Ptr_t_, ptr %5, i32 0, i32 1
  %7 = load i32, ptr %6, align 4, !tbaa !28
  %8 = load ptr, ptr %3, align 8, !tbaa !27
  %9 = getelementptr inbounds nuw %struct.Vec_Ptr_t_, ptr %8, i32 0, i32 0
  %10 = load i32, ptr %9, align 8, !tbaa !30
  %11 = icmp eq i32 %7, %10
  br i1 %11, label %12, label %26

12:                                               ; preds = %2
  %13 = load ptr, ptr %3, align 8, !tbaa !27
  %14 = getelementptr inbounds nuw %struct.Vec_Ptr_t_, ptr %13, i32 0, i32 0
  %15 = load i32, ptr %14, align 8, !tbaa !30
  %16 = icmp slt i32 %15, 16
  br i1 %16, label %17, label %19

17:                                               ; preds = %12
  %18 = load ptr, ptr %3, align 8, !tbaa !27
  call void @Vec_PtrGrow(ptr noundef %18, i32 noundef 16)
  br label %25

19:                                               ; preds = %12
  %20 = load ptr, ptr %3, align 8, !tbaa !27
  %21 = load ptr, ptr %3, align 8, !tbaa !27
  %22 = getelementptr inbounds nuw %struct.Vec_Ptr_t_, ptr %21, i32 0, i32 0
  %23 = load i32, ptr %22, align 8, !tbaa !30
  %24 = mul nsw i32 2, %23
  call void @Vec_PtrGrow(ptr noundef %20, i32 noundef %24)
  br label %25

25:                                               ; preds = %19, %17
  br label %26

26:                                               ; preds = %25, %2
  %27 = load ptr, ptr %4, align 8, !tbaa !59
  %28 = load ptr, ptr %3, align 8, !tbaa !27
  %29 = getelementptr inbounds nuw %struct.Vec_Ptr_t_, ptr %28, i32 0, i32 2
  %30 = load ptr, ptr %29, align 8, !tbaa !31
  %31 = load ptr, ptr %3, align 8, !tbaa !27
  %32 = getelementptr inbounds nuw %struct.Vec_Ptr_t_, ptr %31, i32 0, i32 1
  %33 = load i32, ptr %32, align 4, !tbaa !28
  %34 = add nsw i32 %33, 1
  store i32 %34, ptr %32, align 4, !tbaa !28
  %35 = sext i32 %33 to i64
  %36 = getelementptr inbounds ptr, ptr %30, i64 %35
  store ptr %27, ptr %36, align 8, !tbaa !59
  ret void
}

; Function Attrs: inlinehint nounwind uwtable
define internal void @Vec_IntFree(ptr noundef %0) #5 {
  %2 = alloca ptr, align 8
  store ptr %0, ptr %2, align 8, !tbaa !32
  %3 = load ptr, ptr %2, align 8, !tbaa !32
  %4 = getelementptr inbounds nuw %struct.Vec_Int_t_, ptr %3, i32 0, i32 2
  %5 = load ptr, ptr %4, align 8, !tbaa !37
  %6 = icmp ne ptr %5, null
  br i1 %6, label %7, label %13

7:                                                ; preds = %1
  %8 = load ptr, ptr %2, align 8, !tbaa !32
  %9 = getelementptr inbounds nuw %struct.Vec_Int_t_, ptr %8, i32 0, i32 2
  %10 = load ptr, ptr %9, align 8, !tbaa !37
  call void @free(ptr noundef %10) #9
  %11 = load ptr, ptr %2, align 8, !tbaa !32
  %12 = getelementptr inbounds nuw %struct.Vec_Int_t_, ptr %11, i32 0, i32 2
  store ptr null, ptr %12, align 8, !tbaa !37
  br label %14

13:                                               ; preds = %1
  br label %14

14:                                               ; preds = %13, %7
  %15 = load ptr, ptr %2, align 8, !tbaa !32
  %16 = icmp ne ptr %15, null
  br i1 %16, label %17, label %19

17:                                               ; preds = %14
  %18 = load ptr, ptr %2, align 8, !tbaa !32
  call void @free(ptr noundef %18) #9
  store ptr null, ptr %2, align 8, !tbaa !32
  br label %20

19:                                               ; preds = %14
  br label %20

20:                                               ; preds = %19, %17
  ret void
}

; Function Attrs: inlinehint nounwind uwtable
define internal void @Vec_IntPush(ptr noundef %0, i32 noundef %1) #5 {
  %3 = alloca ptr, align 8
  %4 = alloca i32, align 4
  store ptr %0, ptr %3, align 8, !tbaa !32
  store i32 %1, ptr %4, align 4, !tbaa !8
  %5 = load ptr, ptr %3, align 8, !tbaa !32
  %6 = getelementptr inbounds nuw %struct.Vec_Int_t_, ptr %5, i32 0, i32 1
  %7 = load i32, ptr %6, align 4, !tbaa !33
  %8 = load ptr, ptr %3, align 8, !tbaa !32
  %9 = getelementptr inbounds nuw %struct.Vec_Int_t_, ptr %8, i32 0, i32 0
  %10 = load i32, ptr %9, align 8, !tbaa !36
  %11 = icmp eq i32 %7, %10
  br i1 %11, label %12, label %26

12:                                               ; preds = %2
  %13 = load ptr, ptr %3, align 8, !tbaa !32
  %14 = getelementptr inbounds nuw %struct.Vec_Int_t_, ptr %13, i32 0, i32 0
  %15 = load i32, ptr %14, align 8, !tbaa !36
  %16 = icmp slt i32 %15, 16
  br i1 %16, label %17, label %19

17:                                               ; preds = %12
  %18 = load ptr, ptr %3, align 8, !tbaa !32
  call void @Vec_IntGrow(ptr noundef %18, i32 noundef 16)
  br label %25

19:                                               ; preds = %12
  %20 = load ptr, ptr %3, align 8, !tbaa !32
  %21 = load ptr, ptr %3, align 8, !tbaa !32
  %22 = getelementptr inbounds nuw %struct.Vec_Int_t_, ptr %21, i32 0, i32 0
  %23 = load i32, ptr %22, align 8, !tbaa !36
  %24 = mul nsw i32 2, %23
  call void @Vec_IntGrow(ptr noundef %20, i32 noundef %24)
  br label %25

25:                                               ; preds = %19, %17
  br label %26

26:                                               ; preds = %25, %2
  %27 = load i32, ptr %4, align 4, !tbaa !8
  %28 = load ptr, ptr %3, align 8, !tbaa !32
  %29 = getelementptr inbounds nuw %struct.Vec_Int_t_, ptr %28, i32 0, i32 2
  %30 = load ptr, ptr %29, align 8, !tbaa !37
  %31 = load ptr, ptr %3, align 8, !tbaa !32
  %32 = getelementptr inbounds nuw %struct.Vec_Int_t_, ptr %31, i32 0, i32 1
  %33 = load i32, ptr %32, align 4, !tbaa !33
  %34 = add nsw i32 %33, 1
  store i32 %34, ptr %32, align 4, !tbaa !33
  %35 = sext i32 %33 to i64
  %36 = getelementptr inbounds i32, ptr %30, i64 %35
  store i32 %27, ptr %36, align 4, !tbaa !8
  ret void
}

; Function Attrs: inlinehint nounwind uwtable
define internal i32 @Vec_IntEntry(ptr noundef %0, i32 noundef %1) #5 {
  %3 = alloca ptr, align 8
  %4 = alloca i32, align 4
  store ptr %0, ptr %3, align 8, !tbaa !32
  store i32 %1, ptr %4, align 4, !tbaa !8
  %5 = load ptr, ptr %3, align 8, !tbaa !32
  %6 = getelementptr inbounds nuw %struct.Vec_Int_t_, ptr %5, i32 0, i32 2
  %7 = load ptr, ptr %6, align 8, !tbaa !37
  %8 = load i32, ptr %4, align 4, !tbaa !8
  %9 = sext i32 %8 to i64
  %10 = getelementptr inbounds i32, ptr %7, i64 %9
  %11 = load i32, ptr %10, align 4, !tbaa !8
  ret i32 %11
}

; Function Attrs: inlinehint nounwind uwtable
define internal ptr @Vec_IntAlloc(i32 noundef %0) #5 {
  %2 = alloca i32, align 4
  %3 = alloca ptr, align 8
  store i32 %0, ptr %2, align 4, !tbaa !8
  call void @llvm.lifetime.start.p0(i64 8, ptr %3) #9
  %4 = call noalias ptr @malloc(i64 noundef 16) #10
  store ptr %4, ptr %3, align 8, !tbaa !32
  %5 = load i32, ptr %2, align 4, !tbaa !8
  %6 = icmp sgt i32 %5, 0
  br i1 %6, label %7, label %11

7:                                                ; preds = %1
  %8 = load i32, ptr %2, align 4, !tbaa !8
  %9 = icmp slt i32 %8, 16
  br i1 %9, label %10, label %11

10:                                               ; preds = %7
  store i32 16, ptr %2, align 4, !tbaa !8
  br label %11

11:                                               ; preds = %10, %7, %1
  %12 = load ptr, ptr %3, align 8, !tbaa !32
  %13 = getelementptr inbounds nuw %struct.Vec_Int_t_, ptr %12, i32 0, i32 1
  store i32 0, ptr %13, align 4, !tbaa !33
  %14 = load i32, ptr %2, align 4, !tbaa !8
  %15 = load ptr, ptr %3, align 8, !tbaa !32
  %16 = getelementptr inbounds nuw %struct.Vec_Int_t_, ptr %15, i32 0, i32 0
  store i32 %14, ptr %16, align 8, !tbaa !36
  %17 = load ptr, ptr %3, align 8, !tbaa !32
  %18 = getelementptr inbounds nuw %struct.Vec_Int_t_, ptr %17, i32 0, i32 0
  %19 = load i32, ptr %18, align 8, !tbaa !36
  %20 = icmp ne i32 %19, 0
  br i1 %20, label %21, label %28

21:                                               ; preds = %11
  %22 = load ptr, ptr %3, align 8, !tbaa !32
  %23 = getelementptr inbounds nuw %struct.Vec_Int_t_, ptr %22, i32 0, i32 0
  %24 = load i32, ptr %23, align 8, !tbaa !36
  %25 = sext i32 %24 to i64
  %26 = mul i64 4, %25
  %27 = call noalias ptr @malloc(i64 noundef %26) #10
  br label %29

28:                                               ; preds = %11
  br label %29

29:                                               ; preds = %28, %21
  %30 = phi ptr [ %27, %21 ], [ null, %28 ]
  %31 = load ptr, ptr %3, align 8, !tbaa !32
  %32 = getelementptr inbounds nuw %struct.Vec_Int_t_, ptr %31, i32 0, i32 2
  store ptr %30, ptr %32, align 8, !tbaa !37
  %33 = load ptr, ptr %3, align 8, !tbaa !32
  call void @llvm.lifetime.end.p0(i64 8, ptr %3) #9
  ret ptr %33
}

; Function Attrs: inlinehint nounwind uwtable
define internal i32 @Vec_IntSize(ptr noundef %0) #5 {
  %2 = alloca ptr, align 8
  store ptr %0, ptr %2, align 8, !tbaa !32
  %3 = load ptr, ptr %2, align 8, !tbaa !32
  %4 = getelementptr inbounds nuw %struct.Vec_Int_t_, ptr %3, i32 0, i32 1
  %5 = load i32, ptr %4, align 4, !tbaa !33
  ret i32 %5
}

; Function Attrs: nounwind uwtable
define void @Aig_ManPartDivide(ptr noundef %0, ptr noundef %1, i32 noundef %2, i32 noundef %3) #0 {
  %5 = alloca ptr, align 8
  %6 = alloca ptr, align 8
  %7 = alloca i32, align 4
  %8 = alloca i32, align 4
  %9 = alloca ptr, align 8
  %10 = alloca i32, align 4
  %11 = alloca i32, align 4
  store ptr %0, ptr %5, align 8, !tbaa !27
  store ptr %1, ptr %6, align 8, !tbaa !32
  store i32 %2, ptr %7, align 4, !tbaa !8
  store i32 %3, ptr %8, align 4, !tbaa !8
  call void @llvm.lifetime.start.p0(i64 8, ptr %9) #9
  call void @llvm.lifetime.start.p0(i64 4, ptr %10) #9
  call void @llvm.lifetime.start.p0(i64 4, ptr %11) #9
  %12 = load i32, ptr %8, align 4, !tbaa !8
  %13 = load i32, ptr %7, align 4, !tbaa !8
  %14 = icmp sge i32 %12, %13
  br i1 %14, label %15, label %22

15:                                               ; preds = %4
  %16 = load i32, ptr %8, align 4, !tbaa !8
  %17 = load i32, ptr %7, align 4, !tbaa !8
  %18 = call i32 (ptr, ...) @printf(ptr noundef @.str.4, i32 noundef %16, i32 noundef %17)
  %19 = call i32 (ptr, ...) @printf(ptr noundef @.str.5)
  %20 = load i32, ptr %7, align 4, !tbaa !8
  %21 = sdiv i32 %20, 2
  store i32 %21, ptr %8, align 4, !tbaa !8
  br label %22

22:                                               ; preds = %15, %4
  store i32 0, ptr %11, align 4, !tbaa !8
  br label %23

23:                                               ; preds = %62, %22
  %24 = load i32, ptr %11, align 4, !tbaa !8
  %25 = load ptr, ptr %6, align 8, !tbaa !32
  %26 = call i32 @Vec_IntSize(ptr noundef %25)
  %27 = icmp slt i32 %24, %26
  br i1 %27, label %28, label %66

28:                                               ; preds = %23
  %29 = load i32, ptr %7, align 4, !tbaa !8
  %30 = call ptr @Vec_IntAlloc(i32 noundef %29)
  store ptr %30, ptr %9, align 8, !tbaa !32
  store i32 0, ptr %10, align 4, !tbaa !8
  br label %31

31:                                               ; preds = %46, %28
  %32 = load i32, ptr %10, align 4, !tbaa !8
  %33 = load i32, ptr %7, align 4, !tbaa !8
  %34 = icmp slt i32 %32, %33
  br i1 %34, label %35, label %51

35:                                               ; preds = %31
  %36 = load i32, ptr %11, align 4, !tbaa !8
  %37 = load ptr, ptr %6, align 8, !tbaa !32
  %38 = call i32 @Vec_IntSize(ptr noundef %37)
  %39 = icmp slt i32 %36, %38
  br i1 %39, label %40, label %45

40:                                               ; preds = %35
  %41 = load ptr, ptr %9, align 8, !tbaa !32
  %42 = load ptr, ptr %6, align 8, !tbaa !32
  %43 = load i32, ptr %11, align 4, !tbaa !8
  %44 = call i32 @Vec_IntEntry(ptr noundef %42, i32 noundef %43)
  call void @Vec_IntPush(ptr noundef %41, i32 noundef %44)
  br label %45

45:                                               ; preds = %40, %35
  br label %46

46:                                               ; preds = %45
  %47 = load i32, ptr %10, align 4, !tbaa !8
  %48 = add nsw i32 %47, 1
  store i32 %48, ptr %10, align 4, !tbaa !8
  %49 = load i32, ptr %11, align 4, !tbaa !8
  %50 = add nsw i32 %49, 1
  store i32 %50, ptr %11, align 4, !tbaa !8
  br label %31, !llvm.loop !98

51:                                               ; preds = %31
  %52 = load ptr, ptr %9, align 8, !tbaa !32
  %53 = call i32 @Vec_IntSize(ptr noundef %52)
  %54 = load i32, ptr %8, align 4, !tbaa !8
  %55 = icmp sle i32 %53, %54
  br i1 %55, label %56, label %58

56:                                               ; preds = %51
  %57 = load ptr, ptr %9, align 8, !tbaa !32
  call void @Vec_IntFree(ptr noundef %57)
  br label %61

58:                                               ; preds = %51
  %59 = load ptr, ptr %5, align 8, !tbaa !27
  %60 = load ptr, ptr %9, align 8, !tbaa !32
  call void @Vec_PtrPush(ptr noundef %59, ptr noundef %60)
  br label %61

61:                                               ; preds = %58, %56
  br label %62

62:                                               ; preds = %61
  %63 = load i32, ptr %8, align 4, !tbaa !8
  %64 = load i32, ptr %11, align 4, !tbaa !8
  %65 = sub nsw i32 %64, %63
  store i32 %65, ptr %11, align 4, !tbaa !8
  br label %23, !llvm.loop !99

66:                                               ; preds = %23
  call void @llvm.lifetime.end.p0(i64 4, ptr %11) #9
  call void @llvm.lifetime.end.p0(i64 4, ptr %10) #9
  call void @llvm.lifetime.end.p0(i64 8, ptr %9) #9
  ret void
}