; Function Attrs: nounwind uwtable
define void @Aig_ManPartDivide(ptr noundef captures(none) %0, ptr noundef readonly captures(none) %1, i32 noundef %2, i32 noundef %3) local_unnamed_addr #0 {
  %.not = icmp slt i32 %3, %2
  br i1 %.not, label %8, label %5

5:                                                ; preds = %4
  %6 = tail call i32 (ptr, ...) @printf(ptr noundef nonnull dereferenceable(1) @.str.4, i32 noundef %3, i32 noundef %2)
  %puts = tail call i32 @puts(ptr nonnull dereferenceable(1) @str.2)
  %7 = sdiv i32 %2, 2
  br label %8

8:                                                ; preds = %5, %4
  %.024 = phi i32 [ %7, %5 ], [ %3, %4 ]
  %9 = getelementptr i8, ptr %1, i64 4
  %.val3038 = load i32, ptr %9, align 4, !tbaa !21
  %10 = icmp sgt i32 %.val3038, 0
  br i1 %10, label %.lr.ph41, label %._crit_edge42

.lr.ph41:                                         ; preds = %8
  %11 = add i32 %2, -1
  %or.cond.i = icmp ult i32 %11, 15
  %spec.store.select.i = select i1 %or.cond.i, i32 16, i32 %2
  %.not.i = icmp eq i32 %spec.store.select.i, 0
  %12 = sext i32 %spec.store.select.i to i64
  %13 = shl nsw i64 %12, 2
  %14 = icmp sgt i32 %2, 0
  %15 = getelementptr i8, ptr %1, i64 8
  %16 = getelementptr inbounds nuw i8, ptr %0, i64 4
  %.phi.trans.insert.i33 = getelementptr inbounds nuw i8, ptr %0, i64 8
  br label %17

17:                                               ; preds = %.lr.ph41, %88
  %.039 = phi i32 [ 0, %.lr.ph41 ], [ %89, %88 ]
  %18 = tail call noalias dereferenceable_or_null(16) ptr @malloc(i64 noundef 16) #13
  %19 = getelementptr inbounds nuw i8, ptr %18, i64 4
  store i32 0, ptr %19, align 4, !tbaa !21
  store i32 %spec.store.select.i, ptr %18, align 8, !tbaa !24
  br i1 %.not.i, label %Vec_IntAlloc.exit, label %20

20:                                               ; preds = %17
  %21 = tail call noalias ptr @malloc(i64 noundef %13) #13
  br label %Vec_IntAlloc.exit

Vec_IntAlloc.exit:                                ; preds = %17, %20
  %22 = phi ptr [ %21, %20 ], [ null, %17 ]
  %23 = getelementptr inbounds nuw i8, ptr %18, i64 8
  store ptr %22, ptr %23, align 8, !tbaa !25
  br i1 %14, label %.lr.ph.preheader, label %._crit_edge

.lr.ph.preheader:                                 ; preds = %Vec_IntAlloc.exit
  %24 = sext i32 %.039 to i64
  br label %.lr.ph

.lr.ph:                                           ; preds = %.lr.ph.preheader, %53
  %25 = phi ptr [ %22, %.lr.ph.preheader ], [ %.pre.i45, %53 ]
  %indvars.iv = phi i64 [ %24, %.lr.ph.preheader ], [ %indvars.iv.next, %53 ]
  %.02336 = phi i32 [ 0, %.lr.ph.preheader ], [ %54, %53 ]
  %.val29 = load i32, ptr %9, align 4, !tbaa !21
  %26 = sext i32 %.val29 to i64
  %27 = icmp slt i64 %indvars.iv, %26
  br i1 %27, label %28, label %53

28:                                               ; preds = %.lr.ph
  %.val31 = load ptr, ptr %15, align 8, !tbaa !25
  %29 = getelementptr inbounds i32, ptr %.val31, i64 %indvars.iv
  %30 = load i32, ptr %29, align 4, !tbaa !53
  %31 = load i32, ptr %19, align 4, !tbaa !21
  %32 = load i32, ptr %18, align 8, !tbaa !24
  %33 = icmp eq i32 %31, %32
  br i1 %33, label %34, label %Vec_IntPush.exit

34:                                               ; preds = %28
  %35 = icmp slt i32 %31, 16
  br i1 %35, label %36, label %41

36:                                               ; preds = %34
  %.not9.i.i = icmp eq ptr %25, null
  br i1 %.not9.i.i, label %39, label %37

37:                                               ; preds = %36
  %38 = tail call dereferenceable_or_null(64) ptr @realloc(ptr noundef nonnull %25, i64 noundef 64) #14
  br label %Vec_IntPush.exit.sink.split

39:                                               ; preds = %36
  %40 = tail call noalias dereferenceable_or_null(64) ptr @malloc(i64 noundef 64) #13
  br label %Vec_IntPush.exit.sink.split

41:                                               ; preds = %34
  %42 = shl nuw nsw i32 %31, 1
  %.not9.i9.i = icmp eq ptr %25, null
  %43 = zext nneg i32 %42 to i64
  %44 = shl nuw nsw i64 %43, 2
  br i1 %.not9.i9.i, label %47, label %45

45:                                               ; preds = %41
  %46 = tail call ptr @realloc(ptr noundef nonnull %25, i64 noundef %44) #14
  br label %Vec_IntPush.exit.sink.split

47:                                               ; preds = %41
  %48 = tail call noalias ptr @malloc(i64 noundef %44) #13
  br label %Vec_IntPush.exit.sink.split

Vec_IntPush.exit.sink.split:                      ; preds = %45, %47, %37, %39
  %.sink48 = phi ptr [ %38, %37 ], [ %40, %39 ], [ %46, %45 ], [ %48, %47 ]
  %.sink = phi i32 [ 16, %37 ], [ 16, %39 ], [ %42, %45 ], [ %42, %47 ]
  store ptr %.sink48, ptr %23, align 8, !tbaa !25
  store i32 %.sink, ptr %18, align 8, !tbaa !24
  br label %Vec_IntPush.exit

Vec_IntPush.exit:                                 ; preds = %Vec_IntPush.exit.sink.split, %28
  %.pre.i46 = phi ptr [ %25, %28 ], [ %.sink48, %Vec_IntPush.exit.sink.split ]
  %49 = load i32, ptr %19, align 4, !tbaa !21
  %50 = add nsw i32 %49, 1
  store i32 %50, ptr %19, align 4, !tbaa !21
  %51 = sext i32 %49 to i64
  %52 = getelementptr inbounds i32, ptr %.pre.i46, i64 %51
  store i32 %30, ptr %52, align 4, !tbaa !53
  br label %53

53:                                               ; preds = %.lr.ph, %Vec_IntPush.exit
  %.pre.i45 = phi ptr [ %25, %.lr.ph ], [ %.pre.i46, %Vec_IntPush.exit ]
  %54 = add nuw nsw i32 %.02336, 1
  %indvars.iv.next = add nsw i64 %indvars.iv, 1
  %exitcond.not = icmp eq i32 %54, %2
  br i1 %exitcond.not, label %._crit_edge.loopexit, label %.lr.ph, !llvm.loop !92

._crit_edge.loopexit:                             ; preds = %53
  %55 = trunc nsw i64 %indvars.iv.next to i32
  %.val.pre = load i32, ptr %19, align 4, !tbaa !21
  br label %._crit_edge

._crit_edge:                                      ; preds = %._crit_edge.loopexit, %Vec_IntAlloc.exit
  %56 = phi ptr [ %22, %Vec_IntAlloc.exit ], [ %.pre.i45, %._crit_edge.loopexit ]
  %.val = phi i32 [ 0, %Vec_IntAlloc.exit ], [ %.val.pre, %._crit_edge.loopexit ]
  %.1.lcssa = phi i32 [ %.039, %Vec_IntAlloc.exit ], [ %55, %._crit_edge.loopexit ]
  %.not28 = icmp sgt i32 %.val, %.024
  br i1 %.not28, label %59, label %57

57:                                               ; preds = %._crit_edge
  %.not.i32 = icmp eq ptr %56, null
  br i1 %.not.i32, label %Vec_IntFree.exit, label %58

58:                                               ; preds = %57
  tail call void @free(ptr noundef nonnull %56) #12
  br label %Vec_IntFree.exit

Vec_IntFree.exit:                                 ; preds = %57, %58
  tail call void @free(ptr noundef nonnull %18) #12
  br label %88

59:                                               ; preds = %._crit_edge
  %60 = load i32, ptr %16, align 4, !tbaa !16
  %61 = load i32, ptr %0, align 8, !tbaa !18
  %62 = icmp eq i32 %60, %61
  br i1 %62, label %63, label %.Vec_PtrGrow.exit11_crit_edge.i

.Vec_PtrGrow.exit11_crit_edge.i:                  ; preds = %59
  %.pre.i34 = load ptr, ptr %.phi.trans.insert.i33, align 8, !tbaa !19
  br label %Vec_PtrPush.exit

63:                                               ; preds = %59
  %64 = icmp slt i32 %60, 16
  br i1 %64, label %65, label %72

65:                                               ; preds = %63
  %66 = load ptr, ptr %.phi.trans.insert.i33, align 8, !tbaa !19
  %.not9.i.i35 = icmp eq ptr %66, null
  br i1 %.not9.i.i35, label %69, label %67

67:                                               ; preds = %65
  %68 = tail call dereferenceable_or_null(128) ptr @realloc(ptr noundef nonnull %66, i64 noundef 128) #14
  br label %Vec_PtrGrow.exit.i

69:                                               ; preds = %65
  %70 = tail call noalias dereferenceable_or_null(128) ptr @malloc(i64 noundef 128) #13
  br label %Vec_PtrGrow.exit.i

Vec_PtrGrow.exit.i:                               ; preds = %69, %67
  %71 = phi ptr [ %68, %67 ], [ %70, %69 ]
  store ptr %71, ptr %.phi.trans.insert.i33, align 8, !tbaa !19
  store i32 16, ptr %0, align 8, !tbaa !18
  br label %Vec_PtrPush.exit

72:                                               ; preds = %63
  %73 = shl nuw nsw i32 %60, 1
  %74 = load ptr, ptr %.phi.trans.insert.i33, align 8, !tbaa !19
  %.not9.i10.i = icmp eq ptr %74, null
  %75 = zext nneg i32 %73 to i64
  %76 = shl nuw nsw i64 %75, 3
  br i1 %.not9.i10.i, label %79, label %77

77:                                               ; preds = %72
  %78 = tail call ptr @realloc(ptr noundef nonnull %74, i64 noundef %76) #14
  br label %81

79:                                               ; preds = %72
  %80 = tail call noalias ptr @malloc(i64 noundef %76) #13
  br label %81

81:                                               ; preds = %79, %77
  %82 = phi ptr [ %78, %77 ], [ %80, %79 ]
  store ptr %82, ptr %.phi.trans.insert.i33, align 8, !tbaa !19
  store i32 %73, ptr %0, align 8, !tbaa !18
  br label %Vec_PtrPush.exit

Vec_PtrPush.exit:                                 ; preds = %.Vec_PtrGrow.exit11_crit_edge.i, %Vec_PtrGrow.exit.i, %81
  %83 = phi ptr [ %.pre.i34, %.Vec_PtrGrow.exit11_crit_edge.i ], [ %82, %81 ], [ %71, %Vec_PtrGrow.exit.i ]
  %84 = load i32, ptr %16, align 4, !tbaa !16
  %85 = add nsw i32 %84, 1
  store i32 %85, ptr %16, align 4, !tbaa !16
  %86 = sext i32 %84 to i64
  %87 = getelementptr inbounds ptr, ptr %83, i64 %86
  store ptr %18, ptr %87, align 8, !tbaa !49
  br label %88

88:                                               ; preds = %Vec_IntFree.exit, %Vec_PtrPush.exit
  %89 = sub nsw i32 %.1.lcssa, %.024
  %.val30 = load i32, ptr %9, align 4, !tbaa !21
  %90 = icmp slt i32 %89, %.val30
  br i1 %90, label %17, label %._crit_edge42, !llvm.loop !93

._crit_edge42:                                    ; preds = %88, %8
  ret void
}